ARM GAS  /tmp/ccca2jpH.s 			page 1


   1              		.cpu cortex-m7
   2              		.arch armv7e-m
   3              		.fpu fpv5-sp-d16
   4              		.eabi_attribute 27, 1
   5              		.eabi_attribute 28, 1
   6              		.eabi_attribute 20, 1
   7              		.eabi_attribute 21, 1
   8              		.eabi_attribute 23, 3
   9              		.eabi_attribute 24, 1
  10              		.eabi_attribute 25, 1
  11              		.eabi_attribute 26, 1
  12              		.eabi_attribute 30, 1
  13              		.eabi_attribute 34, 1
  14              		.eabi_attribute 18, 4
  15              		.file	"cocktail_i2c.c"
  16              		.text
  17              	.Ltext0:
  18              		.cfi_sections	.debug_frame
  19              		.section	.text.HAL_I2C_MasterTxCpltCallback,"ax",%progbits
  20              		.align	1
  21              		.global	HAL_I2C_MasterTxCpltCallback
  22              		.syntax unified
  23              		.thumb
  24              		.thumb_func
  26              	HAL_I2C_MasterTxCpltCallback:
  27              	.LVL0:
  28              	.LFB144:
  29              		.file 1 "fw-lib-stm32-CocktailOS/kernel/peripheral/cocktail_i2c.c"
   1:fw-lib-stm32-CocktailOS/kernel/peripheral/cocktail_i2c.c **** #include "peripheral/cocktail_i2c.h"
   2:fw-lib-stm32-CocktailOS/kernel/peripheral/cocktail_i2c.c **** #include "cocktail_core.h"
   3:fw-lib-stm32-CocktailOS/kernel/peripheral/cocktail_i2c.c **** 
   4:fw-lib-stm32-CocktailOS/kernel/peripheral/cocktail_i2c.c **** #ifdef HAL_I2C_MODULE_ENABLED
   5:fw-lib-stm32-CocktailOS/kernel/peripheral/cocktail_i2c.c **** __weak void COCKTAIL_I2C_MasterTxCpltCallback(I2C_HandleTypeDef *hi2c);
   6:fw-lib-stm32-CocktailOS/kernel/peripheral/cocktail_i2c.c **** __weak void COCKTAIL_I2C_MasterRxCpltCallback(I2C_HandleTypeDef *hi2c);
   7:fw-lib-stm32-CocktailOS/kernel/peripheral/cocktail_i2c.c **** __weak void COCKTAIL_I2C_SlaveTxCpltCallback(I2C_HandleTypeDef *hi2c);
   8:fw-lib-stm32-CocktailOS/kernel/peripheral/cocktail_i2c.c **** __weak void COCKTAIL_I2C_SlaveRxCpltCallback(I2C_HandleTypeDef *hi2c);
   9:fw-lib-stm32-CocktailOS/kernel/peripheral/cocktail_i2c.c **** __weak void COCKTAIL_I2C_ListenCpltCallback(I2C_HandleTypeDef *hi2c);
  10:fw-lib-stm32-CocktailOS/kernel/peripheral/cocktail_i2c.c **** __weak void COCKTAIL_I2C_MemTxCpltCallback(I2C_HandleTypeDef *hi2c);
  11:fw-lib-stm32-CocktailOS/kernel/peripheral/cocktail_i2c.c **** __weak void COCKTAIL_I2C_MemRxCpltCallback(I2C_HandleTypeDef *hi2c);
  12:fw-lib-stm32-CocktailOS/kernel/peripheral/cocktail_i2c.c **** __weak void COCKTAIL_I2C_ErrorCallback(I2C_HandleTypeDef *hi2c);
  13:fw-lib-stm32-CocktailOS/kernel/peripheral/cocktail_i2c.c **** __weak void COCKTAIL_I2C_AbortCpltCallback(I2C_HandleTypeDef *hi2c);
  14:fw-lib-stm32-CocktailOS/kernel/peripheral/cocktail_i2c.c **** 
  15:fw-lib-stm32-CocktailOS/kernel/peripheral/cocktail_i2c.c **** void
  16:fw-lib-stm32-CocktailOS/kernel/peripheral/cocktail_i2c.c **** HAL_I2C_MasterTxCpltCallback(I2C_HandleTypeDef *hi2c)
  17:fw-lib-stm32-CocktailOS/kernel/peripheral/cocktail_i2c.c **** {
  30              		.loc 1 17 1 view -0
  31              		.cfi_startproc
  32              		@ args = 0, pretend = 0, frame = 0
  33              		@ frame_needed = 0, uses_anonymous_args = 0
  34              		.loc 1 17 1 is_stmt 0 view .LVU1
  35 0000 08B5     		push	{r3, lr}
  36              	.LCFI0:
  37              		.cfi_def_cfa_offset 8
  38              		.cfi_offset 3, -8
  39              		.cfi_offset 14, -4
  18:fw-lib-stm32-CocktailOS/kernel/peripheral/cocktail_i2c.c ****     COCKTAIL_I2C_MasterTxCpltCallback(hi2c);
  40              		.loc 1 18 5 is_stmt 1 view .LVU2
ARM GAS  /tmp/ccca2jpH.s 			page 2


  41 0002 FFF7FEFF 		bl	COCKTAIL_I2C_MasterTxCpltCallback
  42              	.LVL1:
  19:fw-lib-stm32-CocktailOS/kernel/peripheral/cocktail_i2c.c **** 
  20:fw-lib-stm32-CocktailOS/kernel/peripheral/cocktail_i2c.c **** #if USE_COCKTAIL_I2C_MASTER_TX_COMPLETE(I2C1)
  21:fw-lib-stm32-CocktailOS/kernel/peripheral/cocktail_i2c.c ****     COCKTAIL_I2C_MASTER_TX_COMPLETE_FN(I2C1);
  22:fw-lib-stm32-CocktailOS/kernel/peripheral/cocktail_i2c.c **** #endif
  23:fw-lib-stm32-CocktailOS/kernel/peripheral/cocktail_i2c.c **** 
  24:fw-lib-stm32-CocktailOS/kernel/peripheral/cocktail_i2c.c **** #if USE_COCKTAIL_I2C_MASTER_TX_COMPLETE(I2C2)
  25:fw-lib-stm32-CocktailOS/kernel/peripheral/cocktail_i2c.c ****     COCKTAIL_I2C_MASTER_TX_COMPLETE_FN(I2C2);
  26:fw-lib-stm32-CocktailOS/kernel/peripheral/cocktail_i2c.c **** #endif
  27:fw-lib-stm32-CocktailOS/kernel/peripheral/cocktail_i2c.c **** 
  28:fw-lib-stm32-CocktailOS/kernel/peripheral/cocktail_i2c.c **** #if USE_COCKTAIL_I2C_MASTER_TX_COMPLETE(I2C3)
  29:fw-lib-stm32-CocktailOS/kernel/peripheral/cocktail_i2c.c ****     COCKTAIL_I2C_MASTER_TX_COMPLETE_FN(I2C3);
  30:fw-lib-stm32-CocktailOS/kernel/peripheral/cocktail_i2c.c **** #endif
  31:fw-lib-stm32-CocktailOS/kernel/peripheral/cocktail_i2c.c **** }
  43              		.loc 1 31 1 is_stmt 0 view .LVU3
  44 0006 08BD     		pop	{r3, pc}
  45              		.cfi_endproc
  46              	.LFE144:
  48              		.section	.text.HAL_I2C_MasterRxCpltCallback,"ax",%progbits
  49              		.align	1
  50              		.global	HAL_I2C_MasterRxCpltCallback
  51              		.syntax unified
  52              		.thumb
  53              		.thumb_func
  55              	HAL_I2C_MasterRxCpltCallback:
  56              	.LVL2:
  57              	.LFB145:
  32:fw-lib-stm32-CocktailOS/kernel/peripheral/cocktail_i2c.c **** 
  33:fw-lib-stm32-CocktailOS/kernel/peripheral/cocktail_i2c.c **** void
  34:fw-lib-stm32-CocktailOS/kernel/peripheral/cocktail_i2c.c **** HAL_I2C_MasterRxCpltCallback(I2C_HandleTypeDef *hi2c)
  35:fw-lib-stm32-CocktailOS/kernel/peripheral/cocktail_i2c.c **** {
  58              		.loc 1 35 1 is_stmt 1 view -0
  59              		.cfi_startproc
  60              		@ args = 0, pretend = 0, frame = 0
  61              		@ frame_needed = 0, uses_anonymous_args = 0
  62              		.loc 1 35 1 is_stmt 0 view .LVU5
  63 0000 08B5     		push	{r3, lr}
  64              	.LCFI1:
  65              		.cfi_def_cfa_offset 8
  66              		.cfi_offset 3, -8
  67              		.cfi_offset 14, -4
  36:fw-lib-stm32-CocktailOS/kernel/peripheral/cocktail_i2c.c ****     COCKTAIL_I2C_MasterRxCpltCallback(hi2c);
  68              		.loc 1 36 5 is_stmt 1 view .LVU6
  69 0002 FFF7FEFF 		bl	COCKTAIL_I2C_MasterRxCpltCallback
  70              	.LVL3:
  37:fw-lib-stm32-CocktailOS/kernel/peripheral/cocktail_i2c.c **** 
  38:fw-lib-stm32-CocktailOS/kernel/peripheral/cocktail_i2c.c **** #if USE_COCKTAIL_I2C_MASTER_RX_COMPLETE(I2C1)
  39:fw-lib-stm32-CocktailOS/kernel/peripheral/cocktail_i2c.c ****     COCKTAIL_I2C_MASTER_RX_COMPLETE_FN(I2C1);
  40:fw-lib-stm32-CocktailOS/kernel/peripheral/cocktail_i2c.c **** #endif
  41:fw-lib-stm32-CocktailOS/kernel/peripheral/cocktail_i2c.c **** 
  42:fw-lib-stm32-CocktailOS/kernel/peripheral/cocktail_i2c.c **** #if USE_COCKTAIL_I2C_MASTER_RX_COMPLETE(I2C2)
  43:fw-lib-stm32-CocktailOS/kernel/peripheral/cocktail_i2c.c ****     COCKTAIL_I2C_MASTER_RX_COMPLETE_FN(I2C2);
  44:fw-lib-stm32-CocktailOS/kernel/peripheral/cocktail_i2c.c **** #endif
  45:fw-lib-stm32-CocktailOS/kernel/peripheral/cocktail_i2c.c **** 
  46:fw-lib-stm32-CocktailOS/kernel/peripheral/cocktail_i2c.c **** #if USE_COCKTAIL_I2C_MASTER_RX_COMPLETE(I2C3)
  47:fw-lib-stm32-CocktailOS/kernel/peripheral/cocktail_i2c.c ****     COCKTAIL_I2C_MASTER_RX_COMPLETE_FN(I2C3);
ARM GAS  /tmp/ccca2jpH.s 			page 3


  48:fw-lib-stm32-CocktailOS/kernel/peripheral/cocktail_i2c.c **** #endif
  49:fw-lib-stm32-CocktailOS/kernel/peripheral/cocktail_i2c.c **** }
  71              		.loc 1 49 1 is_stmt 0 view .LVU7
  72 0006 08BD     		pop	{r3, pc}
  73              		.cfi_endproc
  74              	.LFE145:
  76              		.section	.text.HAL_I2C_SlaveTxCpltCallback,"ax",%progbits
  77              		.align	1
  78              		.global	HAL_I2C_SlaveTxCpltCallback
  79              		.syntax unified
  80              		.thumb
  81              		.thumb_func
  83              	HAL_I2C_SlaveTxCpltCallback:
  84              	.LVL4:
  85              	.LFB146:
  50:fw-lib-stm32-CocktailOS/kernel/peripheral/cocktail_i2c.c **** 
  51:fw-lib-stm32-CocktailOS/kernel/peripheral/cocktail_i2c.c **** void
  52:fw-lib-stm32-CocktailOS/kernel/peripheral/cocktail_i2c.c **** HAL_I2C_SlaveTxCpltCallback(I2C_HandleTypeDef *hi2c)
  53:fw-lib-stm32-CocktailOS/kernel/peripheral/cocktail_i2c.c **** {
  86              		.loc 1 53 1 is_stmt 1 view -0
  87              		.cfi_startproc
  88              		@ args = 0, pretend = 0, frame = 0
  89              		@ frame_needed = 0, uses_anonymous_args = 0
  90              		.loc 1 53 1 is_stmt 0 view .LVU9
  91 0000 08B5     		push	{r3, lr}
  92              	.LCFI2:
  93              		.cfi_def_cfa_offset 8
  94              		.cfi_offset 3, -8
  95              		.cfi_offset 14, -4
  54:fw-lib-stm32-CocktailOS/kernel/peripheral/cocktail_i2c.c ****     COCKTAIL_I2C_SlaveTxCpltCallback(hi2c);
  96              		.loc 1 54 5 is_stmt 1 view .LVU10
  97 0002 FFF7FEFF 		bl	COCKTAIL_I2C_SlaveTxCpltCallback
  98              	.LVL5:
  55:fw-lib-stm32-CocktailOS/kernel/peripheral/cocktail_i2c.c **** 
  56:fw-lib-stm32-CocktailOS/kernel/peripheral/cocktail_i2c.c **** #if USE_COCKTAIL_I2C_SLAVE_TX_COMPLETE(I2C1)
  57:fw-lib-stm32-CocktailOS/kernel/peripheral/cocktail_i2c.c ****     COCKTAIL_I2C_SLAVE_TX_COMPLETE_FN(I2C1);
  58:fw-lib-stm32-CocktailOS/kernel/peripheral/cocktail_i2c.c **** #endif
  59:fw-lib-stm32-CocktailOS/kernel/peripheral/cocktail_i2c.c **** 
  60:fw-lib-stm32-CocktailOS/kernel/peripheral/cocktail_i2c.c **** #if USE_COCKTAIL_I2C_SLAVE_TX_COMPLETE(I2C2)
  61:fw-lib-stm32-CocktailOS/kernel/peripheral/cocktail_i2c.c ****     COCKTAIL_I2C_SLAVE_TX_COMPLETE_FN(I2C2);
  62:fw-lib-stm32-CocktailOS/kernel/peripheral/cocktail_i2c.c **** #endif
  63:fw-lib-stm32-CocktailOS/kernel/peripheral/cocktail_i2c.c **** 
  64:fw-lib-stm32-CocktailOS/kernel/peripheral/cocktail_i2c.c **** #if USE_COCKTAIL_I2C_SLAVE_TX_COMPLETE(I2C3)
  65:fw-lib-stm32-CocktailOS/kernel/peripheral/cocktail_i2c.c ****     COCKTAIL_I2C_SLAVE_TX_COMPLETE_FN(I2C3);
  66:fw-lib-stm32-CocktailOS/kernel/peripheral/cocktail_i2c.c **** #endif
  67:fw-lib-stm32-CocktailOS/kernel/peripheral/cocktail_i2c.c **** }
  99              		.loc 1 67 1 is_stmt 0 view .LVU11
 100 0006 08BD     		pop	{r3, pc}
 101              		.cfi_endproc
 102              	.LFE146:
 104              		.section	.text.HAL_I2C_SlaveRxCpltCallback,"ax",%progbits
 105              		.align	1
 106              		.global	HAL_I2C_SlaveRxCpltCallback
 107              		.syntax unified
 108              		.thumb
 109              		.thumb_func
 111              	HAL_I2C_SlaveRxCpltCallback:
ARM GAS  /tmp/ccca2jpH.s 			page 4


 112              	.LVL6:
 113              	.LFB147:
  68:fw-lib-stm32-CocktailOS/kernel/peripheral/cocktail_i2c.c **** 
  69:fw-lib-stm32-CocktailOS/kernel/peripheral/cocktail_i2c.c **** void
  70:fw-lib-stm32-CocktailOS/kernel/peripheral/cocktail_i2c.c **** HAL_I2C_SlaveRxCpltCallback(I2C_HandleTypeDef *hi2c)
  71:fw-lib-stm32-CocktailOS/kernel/peripheral/cocktail_i2c.c **** {
 114              		.loc 1 71 1 is_stmt 1 view -0
 115              		.cfi_startproc
 116              		@ args = 0, pretend = 0, frame = 0
 117              		@ frame_needed = 0, uses_anonymous_args = 0
 118              		.loc 1 71 1 is_stmt 0 view .LVU13
 119 0000 08B5     		push	{r3, lr}
 120              	.LCFI3:
 121              		.cfi_def_cfa_offset 8
 122              		.cfi_offset 3, -8
 123              		.cfi_offset 14, -4
  72:fw-lib-stm32-CocktailOS/kernel/peripheral/cocktail_i2c.c ****     COCKTAIL_I2C_SlaveRxCpltCallback(hi2c);
 124              		.loc 1 72 5 is_stmt 1 view .LVU14
 125 0002 FFF7FEFF 		bl	COCKTAIL_I2C_SlaveRxCpltCallback
 126              	.LVL7:
  73:fw-lib-stm32-CocktailOS/kernel/peripheral/cocktail_i2c.c **** 
  74:fw-lib-stm32-CocktailOS/kernel/peripheral/cocktail_i2c.c **** #if USE_COCKTAIL_I2C_SLAVE_RX_COMPLETE(I2C1)
  75:fw-lib-stm32-CocktailOS/kernel/peripheral/cocktail_i2c.c ****     COCKTAIL_I2C_SLAVE_RX_COMPLETE_FN(I2C1);
  76:fw-lib-stm32-CocktailOS/kernel/peripheral/cocktail_i2c.c **** #endif
  77:fw-lib-stm32-CocktailOS/kernel/peripheral/cocktail_i2c.c **** 
  78:fw-lib-stm32-CocktailOS/kernel/peripheral/cocktail_i2c.c **** #if USE_COCKTAIL_I2C_SLAVE_RX_COMPLETE(I2C2)
  79:fw-lib-stm32-CocktailOS/kernel/peripheral/cocktail_i2c.c ****     COCKTAIL_I2C_SLAVE_RX_COMPLETE_FN(I2C2);
  80:fw-lib-stm32-CocktailOS/kernel/peripheral/cocktail_i2c.c **** #endif
  81:fw-lib-stm32-CocktailOS/kernel/peripheral/cocktail_i2c.c **** 
  82:fw-lib-stm32-CocktailOS/kernel/peripheral/cocktail_i2c.c **** #if USE_COCKTAIL_I2C_SLAVE_RX_COMPLETE(I2C3)
  83:fw-lib-stm32-CocktailOS/kernel/peripheral/cocktail_i2c.c ****     COCKTAIL_I2C_SLAVE_RX_COMPLETE_FN(I2C3);
  84:fw-lib-stm32-CocktailOS/kernel/peripheral/cocktail_i2c.c **** #endif
  85:fw-lib-stm32-CocktailOS/kernel/peripheral/cocktail_i2c.c **** }
 127              		.loc 1 85 1 is_stmt 0 view .LVU15
 128 0006 08BD     		pop	{r3, pc}
 129              		.cfi_endproc
 130              	.LFE147:
 132              		.section	.text.HAL_I2C_ListenCpltCallback,"ax",%progbits
 133              		.align	1
 134              		.global	HAL_I2C_ListenCpltCallback
 135              		.syntax unified
 136              		.thumb
 137              		.thumb_func
 139              	HAL_I2C_ListenCpltCallback:
 140              	.LVL8:
 141              	.LFB148:
  86:fw-lib-stm32-CocktailOS/kernel/peripheral/cocktail_i2c.c **** 
  87:fw-lib-stm32-CocktailOS/kernel/peripheral/cocktail_i2c.c **** void
  88:fw-lib-stm32-CocktailOS/kernel/peripheral/cocktail_i2c.c **** HAL_I2C_ListenCpltCallback(I2C_HandleTypeDef *hi2c)
  89:fw-lib-stm32-CocktailOS/kernel/peripheral/cocktail_i2c.c **** {
 142              		.loc 1 89 1 is_stmt 1 view -0
 143              		.cfi_startproc
 144              		@ args = 0, pretend = 0, frame = 0
 145              		@ frame_needed = 0, uses_anonymous_args = 0
 146              		.loc 1 89 1 is_stmt 0 view .LVU17
 147 0000 08B5     		push	{r3, lr}
 148              	.LCFI4:
ARM GAS  /tmp/ccca2jpH.s 			page 5


 149              		.cfi_def_cfa_offset 8
 150              		.cfi_offset 3, -8
 151              		.cfi_offset 14, -4
  90:fw-lib-stm32-CocktailOS/kernel/peripheral/cocktail_i2c.c ****     COCKTAIL_I2C_ListenCpltCallback(hi2c);
 152              		.loc 1 90 5 is_stmt 1 view .LVU18
 153 0002 FFF7FEFF 		bl	COCKTAIL_I2C_ListenCpltCallback
 154              	.LVL9:
  91:fw-lib-stm32-CocktailOS/kernel/peripheral/cocktail_i2c.c **** 
  92:fw-lib-stm32-CocktailOS/kernel/peripheral/cocktail_i2c.c **** #if USE_COCKTAIL_I2C_LISTEN_COMPLETE(I2C1)
  93:fw-lib-stm32-CocktailOS/kernel/peripheral/cocktail_i2c.c ****     COCKTAIL_I2C_LISTEN_COMPLETE_FN(I2C1);
  94:fw-lib-stm32-CocktailOS/kernel/peripheral/cocktail_i2c.c **** #endif
  95:fw-lib-stm32-CocktailOS/kernel/peripheral/cocktail_i2c.c **** 
  96:fw-lib-stm32-CocktailOS/kernel/peripheral/cocktail_i2c.c **** #if USE_COCKTAIL_I2C_LISTEN_COMPLETE(I2C2)
  97:fw-lib-stm32-CocktailOS/kernel/peripheral/cocktail_i2c.c ****     COCKTAIL_I2C_LISTEN_COMPLETE_FN(I2C2);
  98:fw-lib-stm32-CocktailOS/kernel/peripheral/cocktail_i2c.c **** #endif
  99:fw-lib-stm32-CocktailOS/kernel/peripheral/cocktail_i2c.c **** 
 100:fw-lib-stm32-CocktailOS/kernel/peripheral/cocktail_i2c.c **** #if USE_COCKTAIL_I2C_LISTEN_COMPLETE(I2C3)
 101:fw-lib-stm32-CocktailOS/kernel/peripheral/cocktail_i2c.c ****     COCKTAIL_I2C_LISTEN_COMPLETE_FN(I2C3);
 102:fw-lib-stm32-CocktailOS/kernel/peripheral/cocktail_i2c.c **** #endif
 103:fw-lib-stm32-CocktailOS/kernel/peripheral/cocktail_i2c.c **** }
 155              		.loc 1 103 1 is_stmt 0 view .LVU19
 156 0006 08BD     		pop	{r3, pc}
 157              		.cfi_endproc
 158              	.LFE148:
 160              		.section	.text.HAL_I2C_MemTxCpltCallback,"ax",%progbits
 161              		.align	1
 162              		.global	HAL_I2C_MemTxCpltCallback
 163              		.syntax unified
 164              		.thumb
 165              		.thumb_func
 167              	HAL_I2C_MemTxCpltCallback:
 168              	.LVL10:
 169              	.LFB149:
 104:fw-lib-stm32-CocktailOS/kernel/peripheral/cocktail_i2c.c **** 
 105:fw-lib-stm32-CocktailOS/kernel/peripheral/cocktail_i2c.c **** void
 106:fw-lib-stm32-CocktailOS/kernel/peripheral/cocktail_i2c.c **** HAL_I2C_MemTxCpltCallback(I2C_HandleTypeDef *hi2c)
 107:fw-lib-stm32-CocktailOS/kernel/peripheral/cocktail_i2c.c **** {
 170              		.loc 1 107 1 is_stmt 1 view -0
 171              		.cfi_startproc
 172              		@ args = 0, pretend = 0, frame = 0
 173              		@ frame_needed = 0, uses_anonymous_args = 0
 174              		.loc 1 107 1 is_stmt 0 view .LVU21
 175 0000 08B5     		push	{r3, lr}
 176              	.LCFI5:
 177              		.cfi_def_cfa_offset 8
 178              		.cfi_offset 3, -8
 179              		.cfi_offset 14, -4
 108:fw-lib-stm32-CocktailOS/kernel/peripheral/cocktail_i2c.c ****     COCKTAIL_I2C_MemTxCpltCallback(hi2c);
 180              		.loc 1 108 5 is_stmt 1 view .LVU22
 181 0002 FFF7FEFF 		bl	COCKTAIL_I2C_MemTxCpltCallback
 182              	.LVL11:
 109:fw-lib-stm32-CocktailOS/kernel/peripheral/cocktail_i2c.c **** 
 110:fw-lib-stm32-CocktailOS/kernel/peripheral/cocktail_i2c.c **** #if USE_COCKTAIL_I2C_MEM_TX_COMPLETE(I2C1)
 111:fw-lib-stm32-CocktailOS/kernel/peripheral/cocktail_i2c.c ****     COCKTAIL_I2C_MEM_TX_COMPLETE_FN(I2C1);
 112:fw-lib-stm32-CocktailOS/kernel/peripheral/cocktail_i2c.c **** #endif
 113:fw-lib-stm32-CocktailOS/kernel/peripheral/cocktail_i2c.c **** 
 114:fw-lib-stm32-CocktailOS/kernel/peripheral/cocktail_i2c.c **** #if USE_COCKTAIL_I2C_MEM_TX_COMPLETE(I2C2)
ARM GAS  /tmp/ccca2jpH.s 			page 6


 115:fw-lib-stm32-CocktailOS/kernel/peripheral/cocktail_i2c.c ****     COCKTAIL_I2C_MEM_TX_COMPLETE_FN(I2C2);
 116:fw-lib-stm32-CocktailOS/kernel/peripheral/cocktail_i2c.c **** #endif
 117:fw-lib-stm32-CocktailOS/kernel/peripheral/cocktail_i2c.c **** 
 118:fw-lib-stm32-CocktailOS/kernel/peripheral/cocktail_i2c.c **** #if USE_COCKTAIL_I2C_MEM_TX_COMPLETE(I2C3)
 119:fw-lib-stm32-CocktailOS/kernel/peripheral/cocktail_i2c.c ****     COCKTAIL_I2C_MEM_TX_COMPLETE_FN(I2C3);
 120:fw-lib-stm32-CocktailOS/kernel/peripheral/cocktail_i2c.c **** #endif
 121:fw-lib-stm32-CocktailOS/kernel/peripheral/cocktail_i2c.c **** }
 183              		.loc 1 121 1 is_stmt 0 view .LVU23
 184 0006 08BD     		pop	{r3, pc}
 185              		.cfi_endproc
 186              	.LFE149:
 188              		.section	.text.HAL_I2C_MemRxCpltCallback,"ax",%progbits
 189              		.align	1
 190              		.global	HAL_I2C_MemRxCpltCallback
 191              		.syntax unified
 192              		.thumb
 193              		.thumb_func
 195              	HAL_I2C_MemRxCpltCallback:
 196              	.LVL12:
 197              	.LFB150:
 122:fw-lib-stm32-CocktailOS/kernel/peripheral/cocktail_i2c.c **** 
 123:fw-lib-stm32-CocktailOS/kernel/peripheral/cocktail_i2c.c **** void
 124:fw-lib-stm32-CocktailOS/kernel/peripheral/cocktail_i2c.c **** HAL_I2C_MemRxCpltCallback(I2C_HandleTypeDef *hi2c)
 125:fw-lib-stm32-CocktailOS/kernel/peripheral/cocktail_i2c.c **** {
 198              		.loc 1 125 1 is_stmt 1 view -0
 199              		.cfi_startproc
 200              		@ args = 0, pretend = 0, frame = 0
 201              		@ frame_needed = 0, uses_anonymous_args = 0
 202              		.loc 1 125 1 is_stmt 0 view .LVU25
 203 0000 08B5     		push	{r3, lr}
 204              	.LCFI6:
 205              		.cfi_def_cfa_offset 8
 206              		.cfi_offset 3, -8
 207              		.cfi_offset 14, -4
 126:fw-lib-stm32-CocktailOS/kernel/peripheral/cocktail_i2c.c ****     COCKTAIL_I2C_MemRxCpltCallback(hi2c);
 208              		.loc 1 126 5 is_stmt 1 view .LVU26
 209 0002 FFF7FEFF 		bl	COCKTAIL_I2C_MemRxCpltCallback
 210              	.LVL13:
 127:fw-lib-stm32-CocktailOS/kernel/peripheral/cocktail_i2c.c **** 
 128:fw-lib-stm32-CocktailOS/kernel/peripheral/cocktail_i2c.c **** #if USE_COCKTAIL_I2C_MEM_RX_COMPLETE(I2C1)
 129:fw-lib-stm32-CocktailOS/kernel/peripheral/cocktail_i2c.c ****     COCKTAIL_I2C_MEM_RX_COMPLETE_FN(I2C1);
 130:fw-lib-stm32-CocktailOS/kernel/peripheral/cocktail_i2c.c **** #endif
 131:fw-lib-stm32-CocktailOS/kernel/peripheral/cocktail_i2c.c **** 
 132:fw-lib-stm32-CocktailOS/kernel/peripheral/cocktail_i2c.c **** #if USE_COCKTAIL_I2C_MEM_RX_COMPLETE(I2C2)
 133:fw-lib-stm32-CocktailOS/kernel/peripheral/cocktail_i2c.c ****     COCKTAIL_I2C_MEM_RX_COMPLETE_FN(I2C2);
 134:fw-lib-stm32-CocktailOS/kernel/peripheral/cocktail_i2c.c **** #endif
 135:fw-lib-stm32-CocktailOS/kernel/peripheral/cocktail_i2c.c **** 
 136:fw-lib-stm32-CocktailOS/kernel/peripheral/cocktail_i2c.c **** #if USE_COCKTAIL_I2C_MEM_RX_COMPLETE(I2C3)
 137:fw-lib-stm32-CocktailOS/kernel/peripheral/cocktail_i2c.c ****     COCKTAIL_I2C_MEM_RX_COMPLETE_FN(I2C3);
 138:fw-lib-stm32-CocktailOS/kernel/peripheral/cocktail_i2c.c **** #endif
 139:fw-lib-stm32-CocktailOS/kernel/peripheral/cocktail_i2c.c **** }
 211              		.loc 1 139 1 is_stmt 0 view .LVU27
 212 0006 08BD     		pop	{r3, pc}
 213              		.cfi_endproc
 214              	.LFE150:
 216              		.section	.text.HAL_I2C_ErrorCallback,"ax",%progbits
 217              		.align	1
ARM GAS  /tmp/ccca2jpH.s 			page 7


 218              		.global	HAL_I2C_ErrorCallback
 219              		.syntax unified
 220              		.thumb
 221              		.thumb_func
 223              	HAL_I2C_ErrorCallback:
 224              	.LVL14:
 225              	.LFB151:
 140:fw-lib-stm32-CocktailOS/kernel/peripheral/cocktail_i2c.c **** 
 141:fw-lib-stm32-CocktailOS/kernel/peripheral/cocktail_i2c.c **** void
 142:fw-lib-stm32-CocktailOS/kernel/peripheral/cocktail_i2c.c **** HAL_I2C_ErrorCallback(I2C_HandleTypeDef *hi2c)
 143:fw-lib-stm32-CocktailOS/kernel/peripheral/cocktail_i2c.c **** {
 226              		.loc 1 143 1 is_stmt 1 view -0
 227              		.cfi_startproc
 228              		@ args = 0, pretend = 0, frame = 0
 229              		@ frame_needed = 0, uses_anonymous_args = 0
 230              		.loc 1 143 1 is_stmt 0 view .LVU29
 231 0000 08B5     		push	{r3, lr}
 232              	.LCFI7:
 233              		.cfi_def_cfa_offset 8
 234              		.cfi_offset 3, -8
 235              		.cfi_offset 14, -4
 144:fw-lib-stm32-CocktailOS/kernel/peripheral/cocktail_i2c.c ****     COCKTAIL_I2C_ErrorCallback(hi2c);
 236              		.loc 1 144 5 is_stmt 1 view .LVU30
 237 0002 FFF7FEFF 		bl	COCKTAIL_I2C_ErrorCallback
 238              	.LVL15:
 145:fw-lib-stm32-CocktailOS/kernel/peripheral/cocktail_i2c.c **** 
 146:fw-lib-stm32-CocktailOS/kernel/peripheral/cocktail_i2c.c **** #if USE_COCKTAIL_I2C_ERROR(I2C1)
 147:fw-lib-stm32-CocktailOS/kernel/peripheral/cocktail_i2c.c ****     COCKTAIL_I2C_ERROR_FN(I2C1);
 148:fw-lib-stm32-CocktailOS/kernel/peripheral/cocktail_i2c.c **** #endif
 149:fw-lib-stm32-CocktailOS/kernel/peripheral/cocktail_i2c.c **** 
 150:fw-lib-stm32-CocktailOS/kernel/peripheral/cocktail_i2c.c **** #if USE_COCKTAIL_I2C_ERROR(I2C2)
 151:fw-lib-stm32-CocktailOS/kernel/peripheral/cocktail_i2c.c ****     COCKTAIL_I2C_ERROR_FN(I2C2);
 152:fw-lib-stm32-CocktailOS/kernel/peripheral/cocktail_i2c.c **** #endif
 153:fw-lib-stm32-CocktailOS/kernel/peripheral/cocktail_i2c.c **** 
 154:fw-lib-stm32-CocktailOS/kernel/peripheral/cocktail_i2c.c **** #if USE_COCKTAIL_I2C_ERROR(I2C3)
 155:fw-lib-stm32-CocktailOS/kernel/peripheral/cocktail_i2c.c ****     COCKTAIL_I2C_ERROR_FN(I2C3);
 156:fw-lib-stm32-CocktailOS/kernel/peripheral/cocktail_i2c.c **** #endif
 157:fw-lib-stm32-CocktailOS/kernel/peripheral/cocktail_i2c.c **** }
 239              		.loc 1 157 1 is_stmt 0 view .LVU31
 240 0006 08BD     		pop	{r3, pc}
 241              		.cfi_endproc
 242              	.LFE151:
 244              		.section	.text.HAL_I2C_AbortCpltCallback,"ax",%progbits
 245              		.align	1
 246              		.global	HAL_I2C_AbortCpltCallback
 247              		.syntax unified
 248              		.thumb
 249              		.thumb_func
 251              	HAL_I2C_AbortCpltCallback:
 252              	.LVL16:
 253              	.LFB152:
 158:fw-lib-stm32-CocktailOS/kernel/peripheral/cocktail_i2c.c **** 
 159:fw-lib-stm32-CocktailOS/kernel/peripheral/cocktail_i2c.c **** void
 160:fw-lib-stm32-CocktailOS/kernel/peripheral/cocktail_i2c.c **** HAL_I2C_AbortCpltCallback(I2C_HandleTypeDef *hi2c)
 161:fw-lib-stm32-CocktailOS/kernel/peripheral/cocktail_i2c.c **** {
 254              		.loc 1 161 1 is_stmt 1 view -0
 255              		.cfi_startproc
ARM GAS  /tmp/ccca2jpH.s 			page 8


 256              		@ args = 0, pretend = 0, frame = 0
 257              		@ frame_needed = 0, uses_anonymous_args = 0
 258              		.loc 1 161 1 is_stmt 0 view .LVU33
 259 0000 08B5     		push	{r3, lr}
 260              	.LCFI8:
 261              		.cfi_def_cfa_offset 8
 262              		.cfi_offset 3, -8
 263              		.cfi_offset 14, -4
 162:fw-lib-stm32-CocktailOS/kernel/peripheral/cocktail_i2c.c ****     COCKTAIL_I2C_AbortCpltCallback(hi2c);
 264              		.loc 1 162 5 is_stmt 1 view .LVU34
 265 0002 FFF7FEFF 		bl	COCKTAIL_I2C_AbortCpltCallback
 266              	.LVL17:
 163:fw-lib-stm32-CocktailOS/kernel/peripheral/cocktail_i2c.c **** 
 164:fw-lib-stm32-CocktailOS/kernel/peripheral/cocktail_i2c.c **** #if USE_COCKTAIL_I2C_ABORT(I2C1)
 165:fw-lib-stm32-CocktailOS/kernel/peripheral/cocktail_i2c.c ****     COCKTAIL_I2C_ABORT_FN(I2C1);
 166:fw-lib-stm32-CocktailOS/kernel/peripheral/cocktail_i2c.c **** #endif
 167:fw-lib-stm32-CocktailOS/kernel/peripheral/cocktail_i2c.c **** 
 168:fw-lib-stm32-CocktailOS/kernel/peripheral/cocktail_i2c.c **** #if USE_COCKTAIL_I2C_ABORT(I2C2)
 169:fw-lib-stm32-CocktailOS/kernel/peripheral/cocktail_i2c.c ****     COCKTAIL_I2C_ABORT_FN(I2C2);
 170:fw-lib-stm32-CocktailOS/kernel/peripheral/cocktail_i2c.c **** #endif
 171:fw-lib-stm32-CocktailOS/kernel/peripheral/cocktail_i2c.c **** 
 172:fw-lib-stm32-CocktailOS/kernel/peripheral/cocktail_i2c.c **** #if USE_COCKTAIL_I2C_ABORT(I2C3)
 173:fw-lib-stm32-CocktailOS/kernel/peripheral/cocktail_i2c.c ****     COCKTAIL_I2C_ABORT_FN(I2C3);
 174:fw-lib-stm32-CocktailOS/kernel/peripheral/cocktail_i2c.c **** #endif
 175:fw-lib-stm32-CocktailOS/kernel/peripheral/cocktail_i2c.c **** }
 267              		.loc 1 175 1 is_stmt 0 view .LVU35
 268 0006 08BD     		pop	{r3, pc}
 269              		.cfi_endproc
 270              	.LFE152:
 272              		.weak	COCKTAIL_I2C_AbortCpltCallback
 273              		.weak	COCKTAIL_I2C_ErrorCallback
 274              		.weak	COCKTAIL_I2C_MemRxCpltCallback
 275              		.weak	COCKTAIL_I2C_MemTxCpltCallback
 276              		.weak	COCKTAIL_I2C_ListenCpltCallback
 277              		.weak	COCKTAIL_I2C_SlaveRxCpltCallback
 278              		.weak	COCKTAIL_I2C_SlaveTxCpltCallback
 279              		.weak	COCKTAIL_I2C_MasterRxCpltCallback
 280              		.weak	COCKTAIL_I2C_MasterTxCpltCallback
 281              		.text
 282              	.Letext0:
 283              		.file 2 "/usr/share/gcc-arm-none-eabi-10.3-2021.10/arm-none-eabi/include/machine/_default_types.h"
 284              		.file 3 "/usr/share/gcc-arm-none-eabi-10.3-2021.10/arm-none-eabi/include/sys/_stdint.h"
 285              		.file 4 "Drivers/CMSIS/Device/ST/STM32F7xx/Include/stm32f746xx.h"
 286              		.file 5 "Drivers/STM32F7xx_HAL_Driver/Inc/stm32f7xx_hal_def.h"
 287              		.file 6 "Drivers/STM32F7xx_HAL_Driver/Inc/stm32f7xx_hal_dma.h"
 288              		.file 7 "Drivers/STM32F7xx_HAL_Driver/Inc/stm32f7xx_hal_i2c.h"
ARM GAS  /tmp/ccca2jpH.s 			page 9

