ARM GAS  /tmp/ccn6ondt.s 			page 1


   1              		.cpu cortex-m7
   2              		.arch armv7e-m
   3              		.fpu fpv5-sp-d16
   4              		.eabi_attribute 27, 1
   5              		.eabi_attribute 28, 1
   6              		.eabi_attribute 20, 1
   7              		.eabi_attribute 21, 1
   8              		.eabi_attribute 23, 3
   9              		.eabi_attribute 24, 1
  10              		.eabi_attribute 25, 1
  11              		.eabi_attribute 26, 1
  12              		.eabi_attribute 30, 1
  13              		.eabi_attribute 34, 1
  14              		.eabi_attribute 18, 4
  15              		.file	"virtual_pcb.c"
  16              		.text
  17              	.Ltext0:
  18              		.cfi_sections	.debug_frame
  19              		.section	.text.vpcb_cond_fn,"ax",%progbits
  20              		.align	1
  21              		.syntax unified
  22              		.thumb
  23              		.thumb_func
  25              	vpcb_cond_fn:
  26              	.LVL0:
  27              	.LFB145:
  28              		.file 1 "fw-lib-stm32-CocktailOS/kernel/core/virtual_pcb.c"
   1:fw-lib-stm32-CocktailOS/kernel/core/virtual_pcb.c **** #include "core/virtual_pcb.h"
   2:fw-lib-stm32-CocktailOS/kernel/core/virtual_pcb.c **** #include "core/watcher.h"
   3:fw-lib-stm32-CocktailOS/kernel/core/virtual_pcb.c **** 
   4:fw-lib-stm32-CocktailOS/kernel/core/virtual_pcb.c **** __IO static uint32_t            unlock_cnt;
   5:fw-lib-stm32-CocktailOS/kernel/core/virtual_pcb.c **** static Cocktail_pLockQueueDef   lock_queue;
   6:fw-lib-stm32-CocktailOS/kernel/core/virtual_pcb.c **** static Cocktail_WatcherTypeDef *watcher;
   7:fw-lib-stm32-CocktailOS/kernel/core/virtual_pcb.c **** 
   8:fw-lib-stm32-CocktailOS/kernel/core/virtual_pcb.c **** static void
   9:fw-lib-stm32-CocktailOS/kernel/core/virtual_pcb.c **** vpcb_job_fn(void *ctx)
  10:fw-lib-stm32-CocktailOS/kernel/core/virtual_pcb.c **** {
  11:fw-lib-stm32-CocktailOS/kernel/core/virtual_pcb.c ****     Cocktail_pLockQueueDef *lock_queue = (Cocktail_pLockQueueDef *)ctx;
  12:fw-lib-stm32-CocktailOS/kernel/core/virtual_pcb.c ****     Cocktail_pLockTypeDef  *lock;
  13:fw-lib-stm32-CocktailOS/kernel/core/virtual_pcb.c **** 
  14:fw-lib-stm32-CocktailOS/kernel/core/virtual_pcb.c ****     while(unlock_cnt)
  15:fw-lib-stm32-CocktailOS/kernel/core/virtual_pcb.c ****     {
  16:fw-lib-stm32-CocktailOS/kernel/core/virtual_pcb.c ****         _FOREACH_LOCK(lock_queue, lock)
  17:fw-lib-stm32-CocktailOS/kernel/core/virtual_pcb.c ****         if(!Cocktail_isLocked(lock)) break;
  18:fw-lib-stm32-CocktailOS/kernel/core/virtual_pcb.c **** 
  19:fw-lib-stm32-CocktailOS/kernel/core/virtual_pcb.c ****         _REMOVE_LOCK(lock_queue, lock);
  20:fw-lib-stm32-CocktailOS/kernel/core/virtual_pcb.c ****         Cocktail_unlock_unsafe(lock);
  21:fw-lib-stm32-CocktailOS/kernel/core/virtual_pcb.c ****         unlock_cnt--;
  22:fw-lib-stm32-CocktailOS/kernel/core/virtual_pcb.c ****     }
  23:fw-lib-stm32-CocktailOS/kernel/core/virtual_pcb.c **** }
  24:fw-lib-stm32-CocktailOS/kernel/core/virtual_pcb.c **** 
  25:fw-lib-stm32-CocktailOS/kernel/core/virtual_pcb.c **** static bool
  26:fw-lib-stm32-CocktailOS/kernel/core/virtual_pcb.c **** vpcb_cond_fn(void *ctx)
  27:fw-lib-stm32-CocktailOS/kernel/core/virtual_pcb.c **** {
  29              		.loc 1 27 1 view -0
  30              		.cfi_startproc
  31              		@ args = 0, pretend = 0, frame = 0
ARM GAS  /tmp/ccn6ondt.s 			page 2


  32              		@ frame_needed = 0, uses_anonymous_args = 0
  33              		@ link register save eliminated.
  28:fw-lib-stm32-CocktailOS/kernel/core/virtual_pcb.c ****     Cocktail_pLockQueueDef *lock_queue = (Cocktail_pLockQueueDef *)ctx;
  34              		.loc 1 28 5 view .LVU1
  29:fw-lib-stm32-CocktailOS/kernel/core/virtual_pcb.c ****     return !NO_ENTRY(lock_queue);
  35              		.loc 1 29 5 view .LVU2
  36              		.loc 1 29 13 is_stmt 0 view .LVU3
  37 0000 0068     		ldr	r0, [r0]
  38              	.LVL1:
  30:fw-lib-stm32-CocktailOS/kernel/core/virtual_pcb.c **** }
  39              		.loc 1 30 1 view .LVU4
  40 0002 0038     		subs	r0, r0, #0
  41 0004 18BF     		it	ne
  42 0006 0120     		movne	r0, #1
  43 0008 7047     		bx	lr
  44              		.cfi_endproc
  45              	.LFE145:
  47              		.section	.text.vpcb_init_fn,"ax",%progbits
  48              		.align	1
  49              		.syntax unified
  50              		.thumb
  51              		.thumb_func
  53              	vpcb_init_fn:
  54              	.LVL2:
  55              	.LFB146:
  31:fw-lib-stm32-CocktailOS/kernel/core/virtual_pcb.c **** 
  32:fw-lib-stm32-CocktailOS/kernel/core/virtual_pcb.c **** static void
  33:fw-lib-stm32-CocktailOS/kernel/core/virtual_pcb.c **** vpcb_init_fn(void *ctx)
  34:fw-lib-stm32-CocktailOS/kernel/core/virtual_pcb.c **** {
  56              		.loc 1 34 1 is_stmt 1 view -0
  57              		.cfi_startproc
  58              		@ args = 0, pretend = 0, frame = 0
  59              		@ frame_needed = 0, uses_anonymous_args = 0
  60              		@ link register save eliminated.
  35:fw-lib-stm32-CocktailOS/kernel/core/virtual_pcb.c ****     Cocktail_pLockQueueDef *lock_queue = (Cocktail_pLockQueueDef *)ctx;
  61              		.loc 1 35 5 view .LVU6
  36:fw-lib-stm32-CocktailOS/kernel/core/virtual_pcb.c ****     _INIT_ENTRY(lock_queue);
  62              		.loc 1 36 5 view .LVU7
  63              		.loc 1 36 5 view .LVU8
  64 0000 0023     		movs	r3, #0
  65 0002 0360     		str	r3, [r0]
  66              		.loc 1 36 5 view .LVU9
  67 0004 4060     		str	r0, [r0, #4]
  68              		.loc 1 36 5 view .LVU10
  37:fw-lib-stm32-CocktailOS/kernel/core/virtual_pcb.c **** }
  69              		.loc 1 37 1 is_stmt 0 view .LVU11
  70 0006 7047     		bx	lr
  71              		.cfi_endproc
  72              	.LFE146:
  74              		.section	.text.vpcb_job_fn,"ax",%progbits
  75              		.align	1
  76              		.syntax unified
  77              		.thumb
  78              		.thumb_func
  80              	vpcb_job_fn:
  81              	.LVL3:
  82              	.LFB144:
ARM GAS  /tmp/ccn6ondt.s 			page 3


  10:fw-lib-stm32-CocktailOS/kernel/core/virtual_pcb.c ****     Cocktail_pLockQueueDef *lock_queue = (Cocktail_pLockQueueDef *)ctx;
  83              		.loc 1 10 1 is_stmt 1 view -0
  84              		.cfi_startproc
  85              		@ args = 0, pretend = 0, frame = 0
  86              		@ frame_needed = 0, uses_anonymous_args = 0
  10:fw-lib-stm32-CocktailOS/kernel/core/virtual_pcb.c ****     Cocktail_pLockQueueDef *lock_queue = (Cocktail_pLockQueueDef *)ctx;
  87              		.loc 1 10 1 is_stmt 0 view .LVU13
  88 0000 38B5     		push	{r3, r4, r5, lr}
  89              	.LCFI0:
  90              		.cfi_def_cfa_offset 16
  91              		.cfi_offset 3, -16
  92              		.cfi_offset 4, -12
  93              		.cfi_offset 5, -8
  94              		.cfi_offset 14, -4
  95 0002 0546     		mov	r5, r0
  11:fw-lib-stm32-CocktailOS/kernel/core/virtual_pcb.c ****     Cocktail_pLockTypeDef  *lock;
  96              		.loc 1 11 5 is_stmt 1 view .LVU14
  97              	.LVL4:
  12:fw-lib-stm32-CocktailOS/kernel/core/virtual_pcb.c **** 
  98              		.loc 1 12 5 view .LVU15
  14:fw-lib-stm32-CocktailOS/kernel/core/virtual_pcb.c ****     {
  99              		.loc 1 14 5 view .LVU16
  14:fw-lib-stm32-CocktailOS/kernel/core/virtual_pcb.c ****     {
 100              		.loc 1 14 10 is_stmt 0 view .LVU17
 101 0004 13E0     		b	.L4
 102              	.LVL5:
 103              	.L12:
  16:fw-lib-stm32-CocktailOS/kernel/core/virtual_pcb.c ****         if(!Cocktail_isLocked(lock)) break;
 104              		.loc 1 16 9 is_stmt 1 discriminator 2 view .LVU18
 105 0006 6469     		ldr	r4, [r4, #20]
 106              	.LVL6:
 107              	.L5:
  16:fw-lib-stm32-CocktailOS/kernel/core/virtual_pcb.c ****         if(!Cocktail_isLocked(lock)) break;
 108              		.loc 1 16 9 discriminator 1 view .LVU19
 109 0008 24B1     		cbz	r4, .L6
  17:fw-lib-stm32-CocktailOS/kernel/core/virtual_pcb.c **** 
 110              		.loc 1 17 9 view .LVU20
  17:fw-lib-stm32-CocktailOS/kernel/core/virtual_pcb.c **** 
 111              		.loc 1 17 13 is_stmt 0 view .LVU21
 112 000a 2046     		mov	r0, r4
 113 000c FFF7FEFF 		bl	Cocktail_isLocked
 114              	.LVL7:
  17:fw-lib-stm32-CocktailOS/kernel/core/virtual_pcb.c **** 
 115              		.loc 1 17 11 view .LVU22
 116 0010 0028     		cmp	r0, #0
 117 0012 F8D1     		bne	.L12
 118              	.L6:
  19:fw-lib-stm32-CocktailOS/kernel/core/virtual_pcb.c ****         Cocktail_unlock_unsafe(lock);
 119              		.loc 1 19 9 is_stmt 1 view .LVU23
  19:fw-lib-stm32-CocktailOS/kernel/core/virtual_pcb.c ****         Cocktail_unlock_unsafe(lock);
 120              		.loc 1 19 9 view .LVU24
  19:fw-lib-stm32-CocktailOS/kernel/core/virtual_pcb.c ****         Cocktail_unlock_unsafe(lock);
 121              		.loc 1 19 9 view .LVU25
 122 0014 2B68     		ldr	r3, [r5]
 123 0016 A342     		cmp	r3, r4
 124 0018 10D1     		bne	.L8
  19:fw-lib-stm32-CocktailOS/kernel/core/virtual_pcb.c ****         Cocktail_unlock_unsafe(lock);
ARM GAS  /tmp/ccn6ondt.s 			page 4


 125              		.loc 1 19 9 discriminator 1 view .LVU26
  19:fw-lib-stm32-CocktailOS/kernel/core/virtual_pcb.c ****         Cocktail_unlock_unsafe(lock);
 126              		.loc 1 19 9 discriminator 1 view .LVU27
 127 001a 5B69     		ldr	r3, [r3, #20]
 128 001c 2B60     		str	r3, [r5]
 129 001e 5BB1     		cbz	r3, .L13
 130              	.L9:
 131              	.LBB2:
  19:fw-lib-stm32-CocktailOS/kernel/core/virtual_pcb.c ****         Cocktail_unlock_unsafe(lock);
 132              		.loc 1 19 9 discriminator 12 view .LVU28
 133              	.LBE2:
  19:fw-lib-stm32-CocktailOS/kernel/core/virtual_pcb.c ****         Cocktail_unlock_unsafe(lock);
 134              		.loc 1 19 9 discriminator 12 view .LVU29
  19:fw-lib-stm32-CocktailOS/kernel/core/virtual_pcb.c ****         Cocktail_unlock_unsafe(lock);
 135              		.loc 1 19 9 discriminator 12 view .LVU30
  20:fw-lib-stm32-CocktailOS/kernel/core/virtual_pcb.c ****         unlock_cnt--;
 136              		.loc 1 20 9 discriminator 12 view .LVU31
 137 0020 2046     		mov	r0, r4
 138 0022 FFF7FEFF 		bl	Cocktail_unlock_unsafe
 139              	.LVL8:
  21:fw-lib-stm32-CocktailOS/kernel/core/virtual_pcb.c ****     }
 140              		.loc 1 21 9 discriminator 12 view .LVU32
  21:fw-lib-stm32-CocktailOS/kernel/core/virtual_pcb.c ****     }
 141              		.loc 1 21 19 is_stmt 0 discriminator 12 view .LVU33
 142 0026 0B4A     		ldr	r2, .L15
 143 0028 1368     		ldr	r3, [r2]
 144 002a 013B     		subs	r3, r3, #1
 145 002c 1360     		str	r3, [r2]
 146              	.LVL9:
 147              	.L4:
  14:fw-lib-stm32-CocktailOS/kernel/core/virtual_pcb.c ****     {
 148              		.loc 1 14 10 is_stmt 1 view .LVU34
  14:fw-lib-stm32-CocktailOS/kernel/core/virtual_pcb.c ****     {
 149              		.loc 1 14 11 is_stmt 0 view .LVU35
 150 002e 094B     		ldr	r3, .L15
 151 0030 1B68     		ldr	r3, [r3]
  14:fw-lib-stm32-CocktailOS/kernel/core/virtual_pcb.c ****     {
 152              		.loc 1 14 10 view .LVU36
 153 0032 73B1     		cbz	r3, .L14
  16:fw-lib-stm32-CocktailOS/kernel/core/virtual_pcb.c ****         if(!Cocktail_isLocked(lock)) break;
 154              		.loc 1 16 9 is_stmt 1 view .LVU37
 155 0034 2C68     		ldr	r4, [r5]
 156              	.LVL10:
  16:fw-lib-stm32-CocktailOS/kernel/core/virtual_pcb.c ****         if(!Cocktail_isLocked(lock)) break;
 157              		.loc 1 16 9 is_stmt 0 view .LVU38
 158 0036 E7E7     		b	.L5
 159              	.L13:
  19:fw-lib-stm32-CocktailOS/kernel/core/virtual_pcb.c ****         Cocktail_unlock_unsafe(lock);
 160              		.loc 1 19 9 is_stmt 1 discriminator 3 view .LVU39
 161 0038 6D60     		str	r5, [r5, #4]
 162 003a F1E7     		b	.L9
 163              	.L8:
 164              	.LVL11:
 165              	.LBB3:
  19:fw-lib-stm32-CocktailOS/kernel/core/virtual_pcb.c ****         Cocktail_unlock_unsafe(lock);
 166              		.loc 1 19 9 discriminator 6 view .LVU40
 167 003c 1A46     		mov	r2, r3
ARM GAS  /tmp/ccn6ondt.s 			page 5


 168 003e 5B69     		ldr	r3, [r3, #20]
 169              	.LVL12:
  19:fw-lib-stm32-CocktailOS/kernel/core/virtual_pcb.c ****         Cocktail_unlock_unsafe(lock);
 170              		.loc 1 19 9 is_stmt 0 discriminator 6 view .LVU41
 171 0040 A342     		cmp	r3, r4
 172 0042 FBD1     		bne	.L8
  19:fw-lib-stm32-CocktailOS/kernel/core/virtual_pcb.c ****         Cocktail_unlock_unsafe(lock);
 173              		.loc 1 19 9 is_stmt 1 discriminator 9 view .LVU42
  19:fw-lib-stm32-CocktailOS/kernel/core/virtual_pcb.c ****         Cocktail_unlock_unsafe(lock);
 174              		.loc 1 19 9 discriminator 9 view .LVU43
 175 0044 5B69     		ldr	r3, [r3, #20]
 176 0046 5361     		str	r3, [r2, #20]
 177 0048 002B     		cmp	r3, #0
 178 004a E9D1     		bne	.L9
  19:fw-lib-stm32-CocktailOS/kernel/core/virtual_pcb.c ****         Cocktail_unlock_unsafe(lock);
 179              		.loc 1 19 9 discriminator 10 view .LVU44
 180 004c 1432     		adds	r2, r2, #20
 181              	.LVL13:
  19:fw-lib-stm32-CocktailOS/kernel/core/virtual_pcb.c ****         Cocktail_unlock_unsafe(lock);
 182              		.loc 1 19 9 is_stmt 0 discriminator 10 view .LVU45
 183 004e 6A60     		str	r2, [r5, #4]
 184 0050 E6E7     		b	.L9
 185              	.LVL14:
 186              	.L14:
  19:fw-lib-stm32-CocktailOS/kernel/core/virtual_pcb.c ****         Cocktail_unlock_unsafe(lock);
 187              		.loc 1 19 9 discriminator 10 view .LVU46
 188              	.LBE3:
  23:fw-lib-stm32-CocktailOS/kernel/core/virtual_pcb.c **** 
 189              		.loc 1 23 1 view .LVU47
 190 0052 38BD     		pop	{r3, r4, r5, pc}
 191              	.LVL15:
 192              	.L16:
  23:fw-lib-stm32-CocktailOS/kernel/core/virtual_pcb.c **** 
 193              		.loc 1 23 1 view .LVU48
 194              		.align	2
 195              	.L15:
 196 0054 00000000 		.word	.LANCHOR0
 197              		.cfi_endproc
 198              	.LFE144:
 200              		.section	.text.Cocktail_create_vpcb,"ax",%progbits
 201              		.align	1
 202              		.global	Cocktail_create_vpcb
 203              		.syntax unified
 204              		.thumb
 205              		.thumb_func
 207              	Cocktail_create_vpcb:
 208              	.LFB147:
  38:fw-lib-stm32-CocktailOS/kernel/core/virtual_pcb.c **** 
  39:fw-lib-stm32-CocktailOS/kernel/core/virtual_pcb.c **** Cocktail_pLockTypeDef *
  40:fw-lib-stm32-CocktailOS/kernel/core/virtual_pcb.c **** Cocktail_create_vpcb()
  41:fw-lib-stm32-CocktailOS/kernel/core/virtual_pcb.c **** {
 209              		.loc 1 41 1 is_stmt 1 view -0
 210              		.cfi_startproc
 211              		@ args = 0, pretend = 0, frame = 0
 212              		@ frame_needed = 0, uses_anonymous_args = 0
 213 0000 38B5     		push	{r3, r4, r5, lr}
 214              	.LCFI1:
ARM GAS  /tmp/ccn6ondt.s 			page 6


 215              		.cfi_def_cfa_offset 16
 216              		.cfi_offset 3, -16
 217              		.cfi_offset 4, -12
 218              		.cfi_offset 5, -8
 219              		.cfi_offset 14, -4
  42:fw-lib-stm32-CocktailOS/kernel/core/virtual_pcb.c ****     Cocktail_PcbTypeDef   *vpcb;
 220              		.loc 1 42 5 view .LVU50
  43:fw-lib-stm32-CocktailOS/kernel/core/virtual_pcb.c ****     Cocktail_pLockTypeDef *lock;
 221              		.loc 1 43 5 view .LVU51
  44:fw-lib-stm32-CocktailOS/kernel/core/virtual_pcb.c **** 
  45:fw-lib-stm32-CocktailOS/kernel/core/virtual_pcb.c ****     INIT_PROCESS(vpcb);
 222              		.loc 1 45 5 view .LVU52
 223              		.loc 1 45 5 view .LVU53
 224 0002 2820     		movs	r0, #40
 225 0004 FFF7FEFF 		bl	malloc
 226              	.LVL16:
 227              		.loc 1 45 5 view .LVU54
 228              		.loc 1 45 5 view .LVU55
 229 0008 0022     		movs	r2, #0
 230 000a 0146     		mov	r1, r0
 231 000c 41F80C2F 		str	r2, [r1, #12]!
 232              		.loc 1 45 5 view .LVU56
 233 0010 0161     		str	r1, [r0, #16]
 234              		.loc 1 45 5 view .LVU57
 235              		.loc 1 45 5 view .LVU58
 236 0012 C261     		str	r2, [r0, #28]
 237              		.loc 1 45 5 view .LVU59
 238 0014 0262     		str	r2, [r0, #32]
 239              		.loc 1 45 5 view .LVU60
 240 0016 80F82420 		strb	r2, [r0, #36]
 241              		.loc 1 45 5 view .LVU61
  46:fw-lib-stm32-CocktailOS/kernel/core/virtual_pcb.c ****     lock = Cocktail_lock(vpcb);
 242              		.loc 1 46 5 view .LVU62
 243              		.loc 1 46 12 is_stmt 0 view .LVU63
 244 001a FFF7FEFF 		bl	Cocktail_lock
 245              	.LVL17:
 246 001e 0446     		mov	r4, r0
 247              	.LVL18:
  47:fw-lib-stm32-CocktailOS/kernel/core/virtual_pcb.c **** 
  48:fw-lib-stm32-CocktailOS/kernel/core/virtual_pcb.c ****     if(!watcher)
 248              		.loc 1 48 5 is_stmt 1 view .LVU64
 249              		.loc 1 48 8 is_stmt 0 view .LVU65
 250 0020 124B     		ldr	r3, .L21
 251 0022 1B68     		ldr	r3, [r3]
 252              		.loc 1 48 7 view .LVU66
 253 0024 6BB1     		cbz	r3, .L20
 254              	.LVL19:
 255              	.L18:
  49:fw-lib-stm32-CocktailOS/kernel/core/virtual_pcb.c ****     {
  50:fw-lib-stm32-CocktailOS/kernel/core/virtual_pcb.c ****         watcher = Cocktail_getWatcher(&lock_queue);
  51:fw-lib-stm32-CocktailOS/kernel/core/virtual_pcb.c ****         Cocktail_set_watcher_init_fn(watcher, vpcb_init_fn);
  52:fw-lib-stm32-CocktailOS/kernel/core/virtual_pcb.c ****         Cocktail_set_watcher_job_fn(watcher, vpcb_job_fn);
  53:fw-lib-stm32-CocktailOS/kernel/core/virtual_pcb.c ****         Cocktail_set_watcher_cond_fn(watcher, vpcb_cond_fn);
  54:fw-lib-stm32-CocktailOS/kernel/core/virtual_pcb.c ****         Cocktail_startWatcher(watcher);
  55:fw-lib-stm32-CocktailOS/kernel/core/virtual_pcb.c ****     }
  56:fw-lib-stm32-CocktailOS/kernel/core/virtual_pcb.c ****     Cocktail_invokeWatcher(watcher);
 256              		.loc 1 56 5 is_stmt 1 view .LVU67
ARM GAS  /tmp/ccn6ondt.s 			page 7


 257 0026 114B     		ldr	r3, .L21
 258 0028 1868     		ldr	r0, [r3]
 259 002a FFF7FEFF 		bl	Cocktail_invokeWatcher
 260              	.LVL20:
  57:fw-lib-stm32-CocktailOS/kernel/core/virtual_pcb.c **** 
  58:fw-lib-stm32-CocktailOS/kernel/core/virtual_pcb.c ****     _ADD_LOCK(&lock_queue, lock);
 261              		.loc 1 58 5 view .LVU68
 262              	.LBB4:
 263              		.loc 1 58 5 view .LVU69
 264              		.loc 1 58 5 view .LVU70
 265              		.loc 1 58 5 view .LVU71
 266 002e 0023     		movs	r3, #0
 267 0030 6361     		str	r3, [r4, #20]
 268              		.loc 1 58 5 view .LVU72
 269 0032 0F4B     		ldr	r3, .L21+4
 270 0034 5A68     		ldr	r2, [r3, #4]
 271 0036 1460     		str	r4, [r2]
 272              		.loc 1 58 5 view .LVU73
 273 0038 04F11402 		add	r2, r4, #20
 274 003c 5A60     		str	r2, [r3, #4]
 275              		.loc 1 58 5 view .LVU74
 276              	.LBE4:
 277              		.loc 1 58 5 view .LVU75
  59:fw-lib-stm32-CocktailOS/kernel/core/virtual_pcb.c **** 
  60:fw-lib-stm32-CocktailOS/kernel/core/virtual_pcb.c ****     return lock;
 278              		.loc 1 60 5 view .LVU76
  61:fw-lib-stm32-CocktailOS/kernel/core/virtual_pcb.c **** }
 279              		.loc 1 61 1 is_stmt 0 view .LVU77
 280 003e 2046     		mov	r0, r4
 281 0040 38BD     		pop	{r3, r4, r5, pc}
 282              	.LVL21:
 283              	.L20:
  50:fw-lib-stm32-CocktailOS/kernel/core/virtual_pcb.c ****         Cocktail_set_watcher_init_fn(watcher, vpcb_init_fn);
 284              		.loc 1 50 9 is_stmt 1 view .LVU78
  50:fw-lib-stm32-CocktailOS/kernel/core/virtual_pcb.c ****         Cocktail_set_watcher_init_fn(watcher, vpcb_init_fn);
 285              		.loc 1 50 19 is_stmt 0 view .LVU79
 286 0042 0B48     		ldr	r0, .L21+4
 287              	.LVL22:
  50:fw-lib-stm32-CocktailOS/kernel/core/virtual_pcb.c ****         Cocktail_set_watcher_init_fn(watcher, vpcb_init_fn);
 288              		.loc 1 50 19 view .LVU80
 289 0044 FFF7FEFF 		bl	Cocktail_getWatcher
 290              	.LVL23:
  50:fw-lib-stm32-CocktailOS/kernel/core/virtual_pcb.c ****         Cocktail_set_watcher_init_fn(watcher, vpcb_init_fn);
 291              		.loc 1 50 17 view .LVU81
 292 0048 084D     		ldr	r5, .L21
 293 004a 2860     		str	r0, [r5]
  51:fw-lib-stm32-CocktailOS/kernel/core/virtual_pcb.c ****         Cocktail_set_watcher_job_fn(watcher, vpcb_job_fn);
 294              		.loc 1 51 9 is_stmt 1 view .LVU82
 295 004c 0949     		ldr	r1, .L21+8
 296 004e FFF7FEFF 		bl	Cocktail_set_watcher_init_fn
 297              	.LVL24:
  52:fw-lib-stm32-CocktailOS/kernel/core/virtual_pcb.c ****         Cocktail_set_watcher_cond_fn(watcher, vpcb_cond_fn);
 298              		.loc 1 52 9 view .LVU83
 299 0052 0949     		ldr	r1, .L21+12
 300 0054 2868     		ldr	r0, [r5]
 301 0056 FFF7FEFF 		bl	Cocktail_set_watcher_job_fn
 302              	.LVL25:
ARM GAS  /tmp/ccn6ondt.s 			page 8


  53:fw-lib-stm32-CocktailOS/kernel/core/virtual_pcb.c ****         Cocktail_startWatcher(watcher);
 303              		.loc 1 53 9 view .LVU84
 304 005a 0849     		ldr	r1, .L21+16
 305 005c 2868     		ldr	r0, [r5]
 306 005e FFF7FEFF 		bl	Cocktail_set_watcher_cond_fn
 307              	.LVL26:
  54:fw-lib-stm32-CocktailOS/kernel/core/virtual_pcb.c ****     }
 308              		.loc 1 54 9 view .LVU85
 309 0062 2868     		ldr	r0, [r5]
 310 0064 FFF7FEFF 		bl	Cocktail_startWatcher
 311              	.LVL27:
 312 0068 DDE7     		b	.L18
 313              	.L22:
 314 006a 00BF     		.align	2
 315              	.L21:
 316 006c 00000000 		.word	.LANCHOR1
 317 0070 00000000 		.word	.LANCHOR2
 318 0074 00000000 		.word	vpcb_init_fn
 319 0078 00000000 		.word	vpcb_job_fn
 320 007c 00000000 		.word	vpcb_cond_fn
 321              		.cfi_endproc
 322              	.LFE147:
 324              		.section	.text.Cocktail_terminate_vpcb,"ax",%progbits
 325              		.align	1
 326              		.global	Cocktail_terminate_vpcb
 327              		.syntax unified
 328              		.thumb
 329              		.thumb_func
 331              	Cocktail_terminate_vpcb:
 332              	.LVL28:
 333              	.LFB148:
  62:fw-lib-stm32-CocktailOS/kernel/core/virtual_pcb.c **** 
  63:fw-lib-stm32-CocktailOS/kernel/core/virtual_pcb.c **** /*
  64:fw-lib-stm32-CocktailOS/kernel/core/virtual_pcb.c ****  * @brief Terminate Virtual PCB in Interrupt-Safe way.
  65:fw-lib-stm32-CocktailOS/kernel/core/virtual_pcb.c ****  */
  66:fw-lib-stm32-CocktailOS/kernel/core/virtual_pcb.c **** void
  67:fw-lib-stm32-CocktailOS/kernel/core/virtual_pcb.c **** Cocktail_terminate_vpcb(Cocktail_pLockTypeDef *lock)
  68:fw-lib-stm32-CocktailOS/kernel/core/virtual_pcb.c **** {
 334              		.loc 1 68 1 view -0
 335              		.cfi_startproc
 336              		@ args = 0, pretend = 0, frame = 0
 337              		@ frame_needed = 0, uses_anonymous_args = 0
 338              		.loc 1 68 1 is_stmt 0 view .LVU87
 339 0000 08B5     		push	{r3, lr}
 340              	.LCFI2:
 341              		.cfi_def_cfa_offset 8
 342              		.cfi_offset 3, -8
 343              		.cfi_offset 14, -4
  69:fw-lib-stm32-CocktailOS/kernel/core/virtual_pcb.c ****     unlock_cnt++;
 344              		.loc 1 69 5 is_stmt 1 view .LVU88
 345              		.loc 1 69 15 is_stmt 0 view .LVU89
 346 0002 034A     		ldr	r2, .L25
 347 0004 1368     		ldr	r3, [r2]
 348 0006 0133     		adds	r3, r3, #1
 349 0008 1360     		str	r3, [r2]
  70:fw-lib-stm32-CocktailOS/kernel/core/virtual_pcb.c ****     Cocktail_unlock_safe(lock);
 350              		.loc 1 70 5 is_stmt 1 view .LVU90
ARM GAS  /tmp/ccn6ondt.s 			page 9


 351 000a FFF7FEFF 		bl	Cocktail_unlock_safe
 352              	.LVL29:
  71:fw-lib-stm32-CocktailOS/kernel/core/virtual_pcb.c **** }
 353              		.loc 1 71 1 is_stmt 0 view .LVU91
 354 000e 08BD     		pop	{r3, pc}
 355              	.L26:
 356              		.align	2
 357              	.L25:
 358 0010 00000000 		.word	.LANCHOR0
 359              		.cfi_endproc
 360              	.LFE148:
 362              		.section	.text.Cocktail_retrieve_vpcb,"ax",%progbits
 363              		.align	1
 364              		.global	Cocktail_retrieve_vpcb
 365              		.syntax unified
 366              		.thumb
 367              		.thumb_func
 369              	Cocktail_retrieve_vpcb:
 370              	.LVL30:
 371              	.LFB149:
  72:fw-lib-stm32-CocktailOS/kernel/core/virtual_pcb.c **** 
  73:fw-lib-stm32-CocktailOS/kernel/core/virtual_pcb.c **** Cocktail_PcbTypeDef *
  74:fw-lib-stm32-CocktailOS/kernel/core/virtual_pcb.c **** Cocktail_retrieve_vpcb(Cocktail_pLockTypeDef *lock)
  75:fw-lib-stm32-CocktailOS/kernel/core/virtual_pcb.c **** {
 372              		.loc 1 75 1 is_stmt 1 view -0
 373              		.cfi_startproc
 374              		@ args = 0, pretend = 0, frame = 0
 375              		@ frame_needed = 0, uses_anonymous_args = 0
 376              		@ link register save eliminated.
  76:fw-lib-stm32-CocktailOS/kernel/core/virtual_pcb.c ****     if(!lock) return NULL;
 377              		.loc 1 76 5 view .LVU93
 378              		.loc 1 76 7 is_stmt 0 view .LVU94
 379 0000 10B1     		cbz	r0, .L29
  77:fw-lib-stm32-CocktailOS/kernel/core/virtual_pcb.c **** 
  78:fw-lib-stm32-CocktailOS/kernel/core/virtual_pcb.c ****     return lock->caller->publisher;
 380              		.loc 1 78 5 is_stmt 1 view .LVU95
 381              		.loc 1 78 16 is_stmt 0 view .LVU96
 382 0002 C369     		ldr	r3, [r0, #28]
 383              		.loc 1 78 24 view .LVU97
 384 0004 1868     		ldr	r0, [r3]
 385              	.LVL31:
 386              		.loc 1 78 24 view .LVU98
 387 0006 7047     		bx	lr
 388              	.LVL32:
 389              	.L29:
  79:fw-lib-stm32-CocktailOS/kernel/core/virtual_pcb.c **** }
 390              		.loc 1 79 1 view .LVU99
 391 0008 7047     		bx	lr
 392              		.cfi_endproc
 393              	.LFE149:
 395              		.section	.bss.lock_queue,"aw",%nobits
 396              		.align	2
 397              		.set	.LANCHOR2,. + 0
 400              	lock_queue:
 401 0000 00000000 		.space	8
 401      00000000 
 402              		.section	.bss.unlock_cnt,"aw",%nobits
ARM GAS  /tmp/ccn6ondt.s 			page 10


 403              		.align	2
 404              		.set	.LANCHOR0,. + 0
 407              	unlock_cnt:
 408 0000 00000000 		.space	4
 409              		.section	.bss.watcher,"aw",%nobits
 410              		.align	2
 411              		.set	.LANCHOR1,. + 0
 414              	watcher:
 415 0000 00000000 		.space	4
 416              		.text
 417              	.Letext0:
 418              		.file 2 "/usr/share/gcc-arm-none-eabi-10.3-2021.10/arm-none-eabi/include/machine/_default_types.h"
 419              		.file 3 "/usr/share/gcc-arm-none-eabi-10.3-2021.10/arm-none-eabi/include/sys/_stdint.h"
 420              		.file 4 "fw-lib-stm32-CocktailOS/kernel/core/task.h"
 421              		.file 5 "fw-lib-stm32-CocktailOS/kernel/core/pcb.h"
 422              		.file 6 "fw-lib-stm32-CocktailOS/kernel/core/event.h"
 423              		.file 7 "fw-lib-stm32-CocktailOS/kernel/core/watcher.h"
 424              		.file 8 "fw-lib-stm32-CocktailOS/kernel/core/virtual_pcb.h"
 425              		.file 9 "/usr/share/gcc-arm-none-eabi-10.3-2021.10/arm-none-eabi/include/stdlib.h"
ARM GAS  /tmp/ccn6ondt.s 			page 11

